; Function Attrs: mustprogress uwtable
define void @_ZN6icu_777Package16enumDependenciesEPvPFvS1_PKcS3_E(ptr noundef nonnull align 8 dereferenceable(201237) %0, ptr noundef %1, ptr noundef %2) local_unnamed_addr #13 align 2 {
  %4 = getelementptr inbounds nuw i8, ptr %0, i64 1172
  %5 = load i32, ptr %4, align 4, !tbaa !29
  %6 = icmp sgt i32 %5, 0
  br i1 %6, label %.lr.ph, label %._crit_edge

.lr.ph:                                           ; preds = %3
  %7 = getelementptr inbounds nuw i8, ptr %0, i64 1184
  br label %8

8:                                                ; preds = %.lr.ph, %8
  %indvars.iv = phi i64 [ 0, %.lr.ph ], [ %indvars.iv.next, %8 ]
  %9 = load ptr, ptr %7, align 8, !tbaa !30
  %10 = getelementptr inbounds nuw %"struct.icu_77::Item", ptr %9, i64 %indvars.iv
  tail call void @_ZN6icu_777Package16enumDependenciesEPNS_4ItemEPvPFvS3_PKcS5_E(ptr noundef nonnull align 8 dereferenceable(201237) %0, ptr noundef %10, ptr noundef %1, ptr noundef %2)
  %indvars.iv.next = add nuw nsw i64 %indvars.iv, 1
  %11 = load i32, ptr %4, align 4, !tbaa !29
  %12 = sext i32 %11 to i64
  %13 = icmp slt i64 %indvars.iv.next, %12
  br i1 %13, label %8, label %._crit_edge, !llvm.loop !81

._crit_edge:                                      ; preds = %8, %3
  ret void
}